target datalayout = "e-m:e-p270:32:32-p271:32:32-p272:64:64-i64:64-i128:128-f80:128-n8:16:32:64-S128"
target triple = "x86_64-unknown-linux-gnu"

%"class.grpc_core::memory_quota_detail::PressureController" = type { i8, i8, i8, i8, double, double, double }

; Function Attrs: noreturn nounwind uwtable
define linkonce_odr hidden void @__clang_call_terminate(ptr noundef %0) #6 comdat {
  %2 = call ptr @__cxa_begin_catch(ptr %0) #3
  call void @_ZSt9terminatev() #22
  unreachable
}

; Function Attrs: mustprogress nounwind uwtable
define linkonce_odr noundef zeroext i1 @_ZSt10__exchangeIbRbET_RS1_OT0_(ptr noundef nonnull align 1 dereferenceable(1) %__obj, ptr noundef nonnull align 1 dereferenceable(1) %__new_val) #4 comdat {
entry:
  %__obj.addr = alloca ptr, align 8
  %__new_val.addr = alloca ptr, align 8
  %__old_val = alloca i8, align 1
  store ptr %__obj, ptr %__obj.addr, align 8
  store ptr %__new_val, ptr %__new_val.addr, align 8
  %0 = load ptr, ptr %__obj.addr, align 8
  %1 = load i8, ptr %0, align 1
  %tobool = trunc i8 %1 to i1
  %frombool = zext i1 %tobool to i8
  store i8 %frombool, ptr %__old_val, align 1
  %2 = load ptr, ptr %__new_val.addr, align 8
  %3 = load i8, ptr %2, align 1
  %tobool1 = trunc i8 %3 to i1
  %4 = load ptr, ptr %__obj.addr, align 8
  %frombool2 = zext i1 %tobool1 to i8
  store i8 %frombool2, ptr %4, align 1
  %5 = load i8, ptr %__old_val, align 1
  %tobool3 = trunc i8 %5 to i1
  ret i1 %tobool3
}

; Function Attrs: mustprogress nounwind uwtable
define linkonce_odr noundef nonnull align 8 dereferenceable(8) ptr @_ZSt3maxIdERKT_S2_S2_(ptr noundef nonnull align 8 dereferenceable(8) %__a, ptr noundef nonnull align 8 dereferenceable(8) %__b) #4 comdat {
entry:
  %retval = alloca ptr, align 8
  %__a.addr = alloca ptr, align 8
  %__b.addr = alloca ptr, align 8
  store ptr %__a, ptr %__a.addr, align 8
  store ptr %__b, ptr %__b.addr, align 8
  %0 = load ptr, ptr %__a.addr, align 8
  %1 = load double, ptr %0, align 8
  %2 = load ptr, ptr %__b.addr, align 8
  %3 = load double, ptr %2, align 8
  %cmp = fcmp olt double %1, %3
  br i1 %cmp, label %if.then, label %if.end

if.then:                                          ; preds = %entry
  %4 = load ptr, ptr %__b.addr, align 8
  store ptr %4, ptr %retval, align 8
  br label %return

if.end:                                           ; preds = %entry
  %5 = load ptr, ptr %__a.addr, align 8
  store ptr %5, ptr %retval, align 8
  br label %return

return:                                           ; preds = %if.end, %if.then
  %6 = load ptr, ptr %retval, align 8
  ret ptr %6
}

; Function Attrs: mustprogress nounwind uwtable
define linkonce_odr noundef zeroext i1 @_ZSt8exchangeIbRbET_RS1_OT0_(ptr noundef nonnull align 1 dereferenceable(1) %__obj, ptr noundef nonnull align 1 dereferenceable(1) %__new_val) #4 comdat personality ptr @__gxx_personality_v0 {
entry:
  %__obj.addr = alloca ptr, align 8
  %__new_val.addr = alloca ptr, align 8
  store ptr %__obj, ptr %__obj.addr, align 8
  store ptr %__new_val, ptr %__new_val.addr, align 8
  %0 = load ptr, ptr %__obj.addr, align 8
  %1 = load ptr, ptr %__new_val.addr, align 8
  %call = invoke noundef zeroext i1 @_ZSt10__exchangeIbRbET_RS1_OT0_(ptr noundef nonnull align 1 dereferenceable(1) %0, ptr noundef nonnull align 1 dereferenceable(1) %1)
          to label %invoke.cont unwind label %terminate.lpad

invoke.cont:                                      ; preds = %entry
  ret i1 %call

terminate.lpad:                                   ; preds = %entry
  %2 = landingpad { ptr, i32 }
          catch ptr null
  %3 = extractvalue { ptr, i32 } %2, 0
  call void @__clang_call_terminate(ptr %3) #22
  unreachable
}

; Function Attrs: mustprogress uwtable
define noundef double @_ZN9grpc_core19memory_quota_detail18PressureController6UpdateEd(ptr noundef nonnull align 8 dereferenceable(32) %this, double noundef %error) #5 align 2 {
entry:
  %this.addr = alloca ptr, align 8
  %error.addr = alloca double, align 8
  %is_low = alloca i8, align 1
  %was_low = alloca i8, align 1
  %new_control = alloca double, align 8
  %ref.tmp = alloca double, align 8
  store ptr %this, ptr %this.addr, align 8
  store double %error, ptr %error.addr, align 8
  %this1 = load ptr, ptr %this.addr, align 8
  %0 = load double, ptr %error.addr, align 8
  %cmp = fcmp olt double %0, 0.000000e+00
  %frombool = zext i1 %cmp to i8
  store i8 %frombool, ptr %is_low, align 1
  %last_was_low_ = getelementptr inbounds %"class.grpc_core::memory_quota_detail::PressureController", ptr %this1, i32 0, i32 3
  %call = call noundef zeroext i1 @_ZSt8exchangeIbRbET_RS1_OT0_(ptr noundef nonnull align 1 dereferenceable(1) %last_was_low_, ptr noundef nonnull align 1 dereferenceable(1) %is_low) #3
  %frombool2 = zext i1 %call to i8
  store i8 %frombool2, ptr %was_low, align 1
  %1 = load i8, ptr %is_low, align 1
  %tobool = trunc i8 %1 to i1
  br i1 %tobool, label %land.lhs.true, label %if.else

land.lhs.true:                                    ; preds = %entry
  %2 = load i8, ptr %was_low, align 1
  %tobool3 = trunc i8 %2 to i1
  br i1 %tobool3, label %if.then, label %if.else

if.then:                                          ; preds = %land.lhs.true
  %last_control_ = getelementptr inbounds %"class.grpc_core::memory_quota_detail::PressureController", ptr %this1, i32 0, i32 6
  %3 = load double, ptr %last_control_, align 8
  %min_ = getelementptr inbounds %"class.grpc_core::memory_quota_detail::PressureController", ptr %this1, i32 0, i32 4
  %4 = load double, ptr %min_, align 8
  %cmp4 = fcmp oeq double %3, %4
  br i1 %cmp4, label %if.then5, label %if.end12

if.then5:                                         ; preds = %if.then
  %ticks_same_ = getelementptr inbounds %"class.grpc_core::memory_quota_detail::PressureController", ptr %this1, i32 0, i32 0
  %5 = load i8, ptr %ticks_same_, align 8
  %inc = add i8 %5, 1
  store i8 %inc, ptr %ticks_same_, align 8
  %ticks_same_6 = getelementptr inbounds %"class.grpc_core::memory_quota_detail::PressureController", ptr %this1, i32 0, i32 0
  %6 = load i8, ptr %ticks_same_6, align 8
  %conv = zext i8 %6 to i32
  %max_ticks_same_ = getelementptr inbounds %"class.grpc_core::memory_quota_detail::PressureController", ptr %this1, i32 0, i32 1
  %7 = load i8, ptr %max_ticks_same_, align 1
  %conv7 = zext i8 %7 to i32
  %cmp8 = icmp sge i32 %conv, %conv7
  br i1 %cmp8, label %if.then9, label %if.end

if.then9:                                         ; preds = %if.then5
  %min_10 = getelementptr inbounds %"class.grpc_core::memory_quota_detail::PressureController", ptr %this1, i32 0, i32 4
  %8 = load double, ptr %min_10, align 8
  %div = fdiv double %8, 2.000000e+00
  store double %div, ptr %min_10, align 8
  %ticks_same_11 = getelementptr inbounds %"class.grpc_core::memory_quota_detail::PressureController", ptr %this1, i32 0, i32 0
  store i8 0, ptr %ticks_same_11, align 8
  br label %if.end

if.end:                                           ; preds = %if.then9, %if.then5
  br label %if.end12

if.end12:                                         ; preds = %if.end, %if.then
  %min_13 = getelementptr inbounds %"class.grpc_core::memory_quota_detail::PressureController", ptr %this1, i32 0, i32 4
  %9 = load double, ptr %min_13, align 8
  store double %9, ptr %new_control, align 8
  br label %if.end51

if.else:                                          ; preds = %land.lhs.true, %entry
  %10 = load i8, ptr %is_low, align 1
  %tobool14 = trunc i8 %10 to i1
  br i1 %tobool14, label %if.else31, label %land.lhs.true15

land.lhs.true15:                                  ; preds = %if.else
  %11 = load i8, ptr %was_low, align 1
  %tobool16 = trunc i8 %11 to i1
  br i1 %tobool16, label %if.else31, label %if.then17

if.then17:                                        ; preds = %land.lhs.true15
  %ticks_same_18 = getelementptr inbounds %"class.grpc_core::memory_quota_detail::PressureController", ptr %this1, i32 0, i32 0
  %12 = load i8, ptr %ticks_same_18, align 8
  %inc19 = add i8 %12, 1
  store i8 %inc19, ptr %ticks_same_18, align 8
  %ticks_same_20 = getelementptr inbounds %"class.grpc_core::memory_quota_detail::PressureController", ptr %this1, i32 0, i32 0
  %13 = load i8, ptr %ticks_same_20, align 8
  %conv21 = zext i8 %13 to i32
  %max_ticks_same_22 = getelementptr inbounds %"class.grpc_core::memory_quota_detail::PressureController", ptr %this1, i32 0, i32 1
  %14 = load i8, ptr %max_ticks_same_22, align 1
  %conv23 = zext i8 %14 to i32
  %cmp24 = icmp sge i32 %conv21, %conv23
  br i1 %cmp24, label %if.then25, label %if.end29

if.then25:                                        ; preds = %if.then17
  %max_ = getelementptr inbounds %"class.grpc_core::memory_quota_detail::PressureController", ptr %this1, i32 0, i32 5
  %15 = load double, ptr %max_, align 8
  %add = fadd double 1.000000e+00, %15
  %div26 = fdiv double %add, 2.000000e+00
  %max_27 = getelementptr inbounds %"class.grpc_core::memory_quota_detail::PressureController", ptr %this1, i32 0, i32 5
  store double %div26, ptr %max_27, align 8
  %ticks_same_28 = getelementptr inbounds %"class.grpc_core::memory_quota_detail::PressureController", ptr %this1, i32 0, i32 0
  store i8 0, ptr %ticks_same_28, align 8
  br label %if.end29

if.end29:                                         ; preds = %if.then25, %if.then17
  %max_30 = getelementptr inbounds %"class.grpc_core::memory_quota_detail::PressureController", ptr %this1, i32 0, i32 5
  %16 = load double, ptr %max_30, align 8
  store double %16, ptr %new_control, align 8
  br label %if.end50

if.else31:                                        ; preds = %land.lhs.true15, %if.else
  %17 = load i8, ptr %is_low, align 1
  %tobool32 = trunc i8 %17 to i1
  br i1 %tobool32, label %if.then33, label %if.else41

if.then33:                                        ; preds = %if.else31
  %ticks_same_34 = getelementptr inbounds %"class.grpc_core::memory_quota_detail::PressureController", ptr %this1, i32 0, i32 0
  store i8 0, ptr %ticks_same_34, align 8
  %min_35 = getelementptr inbounds %"class.grpc_core::memory_quota_detail::PressureController", ptr %this1, i32 0, i32 4
  %18 = load double, ptr %min_35, align 8
  %max_36 = getelementptr inbounds %"class.grpc_core::memory_quota_detail::PressureController", ptr %this1, i32 0, i32 5
  %19 = load double, ptr %max_36, align 8
  %add37 = fadd double %18, %19
  %div38 = fdiv double %add37, 2.000000e+00
  %min_39 = getelementptr inbounds %"class.grpc_core::memory_quota_detail::PressureController", ptr %this1, i32 0, i32 4
  store double %div38, ptr %min_39, align 8
  %min_40 = getelementptr inbounds %"class.grpc_core::memory_quota_detail::PressureController", ptr %this1, i32 0, i32 4
  %20 = load double, ptr %min_40, align 8
  store double %20, ptr %new_control, align 8
  br label %if.end49

if.else41:                                        ; preds = %if.else31
  %ticks_same_42 = getelementptr inbounds %"class.grpc_core::memory_quota_detail::PressureController", ptr %this1, i32 0, i32 0
  store i8 0, ptr %ticks_same_42, align 8
  %last_control_43 = getelementptr inbounds %"class.grpc_core::memory_quota_detail::PressureController", ptr %this1, i32 0, i32 6
  %21 = load double, ptr %last_control_43, align 8
  %max_44 = getelementptr inbounds %"class.grpc_core::memory_quota_detail::PressureController", ptr %this1, i32 0, i32 5
  %22 = load double, ptr %max_44, align 8
  %add45 = fadd double %21, %22
  %div46 = fdiv double %add45, 2.000000e+00
  %max_47 = getelementptr inbounds %"class.grpc_core::memory_quota_detail::PressureController", ptr %this1, i32 0, i32 5
  store double %div46, ptr %max_47, align 8
  %max_48 = getelementptr inbounds %"class.grpc_core::memory_quota_detail::PressureController", ptr %this1, i32 0, i32 5
  %23 = load double, ptr %max_48, align 8
  store double %23, ptr %new_control, align 8
  br label %if.end49

if.end49:                                         ; preds = %if.else41, %if.then33
  br label %if.end50

if.end50:                                         ; preds = %if.end49, %if.end29
  br label %if.end51

if.end51:                                         ; preds = %if.end50, %if.end12
  %24 = load double, ptr %new_control, align 8
  %last_control_52 = getelementptr inbounds %"class.grpc_core::memory_quota_detail::PressureController", ptr %this1, i32 0, i32 6
  %25 = load double, ptr %last_control_52, align 8
  %cmp53 = fcmp olt double %24, %25
  br i1 %cmp53, label %if.then54, label %if.end60

if.then54:                                        ; preds = %if.end51
  %last_control_55 = getelementptr inbounds %"class.grpc_core::memory_quota_detail::PressureController", ptr %this1, i32 0, i32 6
  %26 = load double, ptr %last_control_55, align 8
  %max_reduction_per_tick_ = getelementptr inbounds %"class.grpc_core::memory_quota_detail::PressureController", ptr %this1, i32 0, i32 2
  %27 = load i8, ptr %max_reduction_per_tick_, align 2
  %conv56 = zext i8 %27 to i32
  %conv57 = sitofp i32 %conv56 to double
  %div58 = fdiv double %conv57, 1.000000e+03
  %sub = fsub double %26, %div58
  store double %sub, ptr %ref.tmp, align 8
  %call59 = call noundef nonnull align 8 dereferenceable(8) ptr @_ZSt3maxIdERKT_S2_S2_(ptr noundef nonnull align 8 dereferenceable(8) %new_control, ptr noundef nonnull align 8 dereferenceable(8) %ref.tmp)
  %28 = load double, ptr %call59, align 8
  store double %28, ptr %new_control, align 8
  br label %if.end60

if.end60:                                         ; preds = %if.then54, %if.end51
  %29 = load double, ptr %new_control, align 8
  %last_control_61 = getelementptr inbounds %"class.grpc_core::memory_quota_detail::PressureController", ptr %this1, i32 0, i32 6
  store double %29, ptr %last_control_61, align 8
  %30 = load double, ptr %new_control, align 8
  ret double %30
}