; Function Attrs: mustprogress nofree norecurse nosync nounwind willreturn memory(argmem: readwrite) uwtable
define noundef double @_ZN9grpc_core19memory_quota_detail18PressureController6UpdateEd(ptr nocapture noundef nonnull align 8 dereferenceable(32) %this, double noundef %error) local_unnamed_addr #14 align 2 personality ptr @__gxx_personality_v0 {
entry:
  %cmp = fcmp olt double %error, 0.000000e+00
  %frombool = zext i1 %cmp to i8
  %last_was_low_ = getelementptr inbounds i8, ptr %this, i64 3
  %0 = load i8, ptr %last_was_low_, align 1
  %1 = and i8 %0, 1
  %tobool.i.i = icmp ne i8 %1, 0
  store i8 %frombool, ptr %last_was_low_, align 1
  %brmerge.not = and i1 %cmp, %tobool.i.i
  br i1 %brmerge.not, label %if.then, label %if.else

if.then:                                          ; preds = %entry
  %last_control_ = getelementptr inbounds i8, ptr %this, i64 24
  %2 = load double, ptr %last_control_, align 8
  %min_ = getelementptr inbounds i8, ptr %this, i64 8
  %3 = load double, ptr %min_, align 8
  %cmp4 = fcmp oeq double %2, %3
  br i1 %cmp4, label %if.then5, label %if.end51

if.then5:                                         ; preds = %if.then
  %4 = load i8, ptr %this, align 8
  %inc = add i8 %4, 1
  store i8 %inc, ptr %this, align 8
  %max_ticks_same_ = getelementptr inbounds i8, ptr %this, i64 1
  %5 = load i8, ptr %max_ticks_same_, align 1
  %cmp8.not = icmp ult i8 %inc, %5
  br i1 %cmp8.not, label %if.end51, label %if.then9

if.then9:                                         ; preds = %if.then5
  %div = fmul double %3, 5.000000e-01
  store double %div, ptr %min_, align 8
  store i8 0, ptr %this, align 8
  br label %if.end51

if.else:                                          ; preds = %entry
  %brmerge2 = or i1 %cmp, %tobool.i.i
  br i1 %brmerge2, label %if.else31, label %if.then17

if.then17:                                        ; preds = %if.else
  %6 = load i8, ptr %this, align 8
  %inc19 = add i8 %6, 1
  store i8 %inc19, ptr %this, align 8
  %max_ticks_same_22 = getelementptr inbounds i8, ptr %this, i64 1
  %7 = load i8, ptr %max_ticks_same_22, align 1
  %cmp24.not = icmp ult i8 %inc19, %7
  %max_30.phi.trans.insert = getelementptr inbounds i8, ptr %this, i64 16
  %.pre = load double, ptr %max_30.phi.trans.insert, align 8
  br i1 %cmp24.not, label %if.end51, label %if.then25

if.then25:                                        ; preds = %if.then17
  %add = fadd double %.pre, 1.000000e+00
  %div26 = fmul double %add, 5.000000e-01
  store double %div26, ptr %max_30.phi.trans.insert, align 8
  store i8 0, ptr %this, align 8
  br label %if.end51

if.else31:                                        ; preds = %if.else
  store i8 0, ptr %this, align 8
  %max_36 = getelementptr inbounds i8, ptr %this, i64 16
  %8 = load double, ptr %max_36, align 8
  br i1 %cmp, label %if.then33, label %if.else41

if.then33:                                        ; preds = %if.else31
  %min_35 = getelementptr inbounds i8, ptr %this, i64 8
  %9 = load double, ptr %min_35, align 8
  %add37 = fadd double %9, %8
  %div38 = fmul double %add37, 5.000000e-01
  store double %div38, ptr %min_35, align 8
  br label %if.end51

if.else41:                                        ; preds = %if.else31
  %last_control_43 = getelementptr inbounds i8, ptr %this, i64 24
  %10 = load double, ptr %last_control_43, align 8
  %add45 = fadd double %10, %8
  %div46 = fmul double %add45, 5.000000e-01
  store double %div46, ptr %max_36, align 8
  br label %if.end51

if.end51:                                         ; preds = %if.then17, %if.then25, %if.then, %if.then9, %if.then5, %if.else41, %if.then33
  %new_control.0 = phi double [ %div46, %if.else41 ], [ %div38, %if.then33 ], [ %3, %if.then5 ], [ %div, %if.then9 ], [ %3, %if.then ], [ %div26, %if.then25 ], [ %.pre, %if.then17 ]
  %last_control_52 = getelementptr inbounds i8, ptr %this, i64 24
  %11 = load double, ptr %last_control_52, align 8
  %cmp53 = fcmp olt double %new_control.0, %11
  br i1 %cmp53, label %if.then54, label %if.end60

if.then54:                                        ; preds = %if.end51
  %max_reduction_per_tick_ = getelementptr inbounds i8, ptr %this, i64 2
  %12 = load i8, ptr %max_reduction_per_tick_, align 2
  %conv57 = uitofp i8 %12 to double
  %div58 = fdiv double %conv57, 1.000000e+03
  %sub = fsub double %11, %div58
  %cmp.i = fcmp olt double %new_control.0, %sub
  %.sroa.speculated = select i1 %cmp.i, double %sub, double %new_control.0
  br label %if.end60

if.end60:                                         ; preds = %if.then54, %if.end51
  %new_control.1 = phi double [ %.sroa.speculated, %if.then54 ], [ %new_control.0, %if.end51 ]
  store double %new_control.1, ptr %last_control_52, align 8
  ret double %new_control.1
}